; Function Attrs: nounwind uwtable
define void @b2Shape_SetFriction(i64 %0, float noundef %1) local_unnamed_addr #0 {
  %.sroa.2.0.extract.shift = lshr i64 %0, 32
  %3 = trunc nuw i64 %.sroa.2.0.extract.shift to i32
  %4 = and i32 %3, 65535
  %5 = tail call ptr @b2GetWorld(i32 noundef %4) #10
  %6 = getelementptr inbounds nuw i8, ptr %5, i64 1783
  %7 = load i8, ptr %6, align 1, !tbaa !212, !range !21, !noundef !22
  %8 = trunc nuw i8 %7 to i1
  br i1 %8, label %14, label %9

9:                                                ; preds = %2
  %10 = getelementptr i8, ptr %5, i64 1256
  %.val = load ptr, ptr %10, align 8, !tbaa !14
  %11 = shl i64 %0, 32
  %sext.i = add i64 %11, -4294967296
  %12 = ashr exact i64 %sext.i, 32
  %13 = getelementptr inbounds %struct.b2Shape, ptr %.val, i64 %12, i32 7
  store float %1, ptr %13, align 4, !tbaa !174
  br label %14

14:                                               ; preds = %2, %9
  ret void
}